; Function Attrs: null_pointer_is_valid sspstrong uwtable
define internal fastcc range(i32 0, 5) i32 @decode_mp_next_hop_ipv4(ptr noundef %0, ptr noundef %1, ptr noundef readonly captures(none) %2, ptr noundef %3, i32 noundef range(i32 0, 256) %4) unnamed_addr #0 {
  %cond = icmp eq i32 %4, 4
  br i1 %cond, label %6, label %12

6:                                                ; preds = %5
  %7 = load i32, ptr @hf_bgp_update_path_attribute_mp_reach_nlri_next_hop_ipv4, align 4
  %8 = tail call ptr @proto_tree_add_item(ptr noundef %1, i32 noundef %7, ptr noundef %0, i32 noundef 1, i32 noundef 4, i32 noundef 0)
  %9 = getelementptr inbounds nuw i8, ptr %2, i64 408
  %10 = load ptr, ptr %9, align 8
  %11 = tail call ptr @tvb_address_to_str(ptr noundef %10, ptr noundef %0, i32 noundef 2, i32 noundef 1)
  tail call void @wmem_strbuf_append(ptr noundef %3, ptr noundef %11)
  br label %12

12:                                               ; preds = %5, %6
  %.0 = phi i32 [ 4, %6 ], [ 0, %5 ]
  ret i32 %.0
}